target datalayout = "e-m:e-p270:32:32-p271:32:32-p272:64:64-i64:64-i128:128-f80:128-n8:16:32:64-S128"
target triple = "x86_64-pc-linux-gnu"

%struct.SUNHashMap_ = type { i32, i32, ptr }

; Function Attrs: nounwind uwtable
define i32 @SUNHashMap_New(i32 noundef %0, ptr noundef %1) #0 {
  %3 = alloca i32, align 4
  %4 = alloca i32, align 4
  %5 = alloca ptr, align 8
  %6 = alloca i32, align 4
  %7 = alloca i32, align 4
  store i32 %0, ptr %4, align 4, !tbaa !3
  store ptr %1, ptr %5, align 8, !tbaa !7
  call void @llvm.lifetime.start.p0(i64 4, ptr %6) #6
  %8 = load i32, ptr %4, align 4, !tbaa !3
  %9 = icmp sle i32 %8, 0
  br i1 %9, label %10, label %11

10:                                               ; preds = %2
  store i32 -9997, ptr %3, align 4
  store i32 1, ptr %7, align 4
  br label %61

11:                                               ; preds = %2
  %12 = load ptr, ptr %5, align 8, !tbaa !7
  store ptr null, ptr %12, align 8, !tbaa !10
  %13 = call noalias ptr @malloc(i64 noundef 16) #7
  %14 = load ptr, ptr %5, align 8, !tbaa !7
  store ptr %13, ptr %14, align 8, !tbaa !10
  %15 = load ptr, ptr %5, align 8, !tbaa !7
  %16 = icmp ne ptr %15, null
  br i1 %16, label %18, label %17

17:                                               ; preds = %11
  store i32 -9988, ptr %3, align 4
  store i32 1, ptr %7, align 4
  br label %61

18:                                               ; preds = %11
  %19 = load ptr, ptr %5, align 8, !tbaa !7
  %20 = load ptr, ptr %19, align 8, !tbaa !10
  %21 = getelementptr inbounds nuw %struct.SUNHashMap_, ptr %20, i32 0, i32 0
  store i32 0, ptr %21, align 8, !tbaa !12
  %22 = load i32, ptr %4, align 4, !tbaa !3
  %23 = load ptr, ptr %5, align 8, !tbaa !7
  %24 = load ptr, ptr %23, align 8, !tbaa !10
  %25 = getelementptr inbounds nuw %struct.SUNHashMap_, ptr %24, i32 0, i32 1
  store i32 %22, ptr %25, align 4, !tbaa !15
  %26 = load ptr, ptr %5, align 8, !tbaa !7
  %27 = load ptr, ptr %26, align 8, !tbaa !10
  %28 = getelementptr inbounds nuw %struct.SUNHashMap_, ptr %27, i32 0, i32 2
  store ptr null, ptr %28, align 8, !tbaa !16
  %29 = load i32, ptr %4, align 4, !tbaa !3
  %30 = sext i32 %29 to i64
  %31 = mul i64 %30, 8
  %32 = call noalias ptr @malloc(i64 noundef %31) #7
  %33 = load ptr, ptr %5, align 8, !tbaa !7
  %34 = load ptr, ptr %33, align 8, !tbaa !10
  %35 = getelementptr inbounds nuw %struct.SUNHashMap_, ptr %34, i32 0, i32 2
  store ptr %32, ptr %35, align 8, !tbaa !16
  %36 = load ptr, ptr %5, align 8, !tbaa !7
  %37 = load ptr, ptr %36, align 8, !tbaa !10
  %38 = getelementptr inbounds nuw %struct.SUNHashMap_, ptr %37, i32 0, i32 2
  %39 = load ptr, ptr %38, align 8, !tbaa !16
  %40 = icmp ne ptr %39, null
  br i1 %40, label %44, label %41

41:                                               ; preds = %18
  %42 = load ptr, ptr %5, align 8, !tbaa !7
  %43 = load ptr, ptr %42, align 8, !tbaa !10
  call void @free(ptr noundef %43) #6
  store i32 -9988, ptr %3, align 4
  store i32 1, ptr %7, align 4
  br label %61

44:                                               ; preds = %18
  store i32 0, ptr %6, align 4, !tbaa !3
  br label %45

45:                                               ; preds = %57, %44
  %46 = load i32, ptr %6, align 4, !tbaa !3
  %47 = load i32, ptr %4, align 4, !tbaa !3
  %48 = icmp slt i32 %46, %47
  br i1 %48, label %49, label %60

49:                                               ; preds = %45
  %50 = load ptr, ptr %5, align 8, !tbaa !7
  %51 = load ptr, ptr %50, align 8, !tbaa !10
  %52 = getelementptr inbounds nuw %struct.SUNHashMap_, ptr %51, i32 0, i32 2
  %53 = load ptr, ptr %52, align 8, !tbaa !16
  %54 = load i32, ptr %6, align 4, !tbaa !3
  %55 = sext i32 %54 to i64
  %56 = getelementptr inbounds ptr, ptr %53, i64 %55
  store ptr null, ptr %56, align 8, !tbaa !17
  br label %57

57:                                               ; preds = %49
  %58 = load i32, ptr %6, align 4, !tbaa !3
  %59 = add nsw i32 %58, 1
  store i32 %59, ptr %6, align 4, !tbaa !3
  br label %45

60:                                               ; preds = %45
  store i32 0, ptr %3, align 4
  store i32 1, ptr %7, align 4
  br label %61

61:                                               ; preds = %60, %41, %17, %10
  call void @llvm.lifetime.end.p0(i64 4, ptr %6) #6
  %62 = load i32, ptr %3, align 4
  ret i32 %62
}