; Function Attrs: mustprogress nounwind willreturn memory(readwrite, argmem: write) uwtable
define range(i32 -9997, 1) i32 @SUNHashMap_New(i32 noundef %0, ptr noundef writeonly captures(none) %1) local_unnamed_addr #0 {
  %3 = icmp slt i32 %0, 1
  br i1 %3, label %.loopexit, label %4

4:                                                ; preds = %2
  %5 = tail call noalias dereferenceable_or_null(16) ptr @malloc(i64 noundef 16) #9
  store ptr %5, ptr %1, align 8, !tbaa !3
  store i32 0, ptr %5, align 8, !tbaa !8
  %6 = getelementptr inbounds nuw i8, ptr %5, i64 4
  store i32 %0, ptr %6, align 4, !tbaa !12
  %7 = getelementptr inbounds nuw i8, ptr %5, i64 8
  %8 = zext nneg i32 %0 to i64
  %9 = shl nuw nsw i64 %8, 3
  %calloc = tail call ptr @calloc(i64 1, i64 %9)
  store ptr %calloc, ptr %7, align 8, !tbaa !13
  %.not = icmp eq ptr %calloc, null
  br i1 %.not, label %10, label %.loopexit

10:                                               ; preds = %4
  tail call void @free(ptr noundef nonnull %5) #10
  br label %.loopexit

.loopexit:                                        ; preds = %4, %2, %10
  %.017 = phi i32 [ -9988, %10 ], [ -9997, %2 ], [ 0, %4 ]
  ret i32 %.017
}